(dp0
S'Raziel'
p1
(lp2
(S'Aleph_Raz'
p3
S'adsl-\\d{1,3}-\\d{1,3}-\\d{1,3}-\\d{1,3}\\.dsl\\.sntc01\\.pacbell\\.net'
p4
S'Mars\\sMorales'
p5
tp6
asS'Terralthra'
p7
(lp8
sS'Sgt_Baker'
p9
(lp10
(S'~Miranda'
p11
S'cpc4-walt1-4-0-cust207\\.popl\\.cable\\.ntl\\.com'
p12
S'l@fe23\\.co\\.uk'
p13
tp14
asS'Being'
p15
(lp16
(S'theinone'
p17
S'dyn-\\d{1,3}-\\d{1,3}-dsl\\.vsp\\.fi'
p18
S'\\.{3}'
p19
tp20
asS'Dahwebmaster'
p21
(lp22
(S'~Owner'
p23
S'deserthtspgs-cuda1-68-70-39-33\\.losaca\\.adelphia\\.net'
p24
S'gaim'
p25
tp26
asS'Abomination'
p27
(lp28
(S'~wally5646'
p29
S'adsl-065-015-015-164\\.sip\\.mia\\.bellsouth\\.net'
p30
S'=P'
p31
tp32
asS'Idanmel'
p33
(lp34
(S'Idan'
p35
S'IGLD-\\d{1,3}-\\d{1,3}-\\d{1,3}-\\d{1,3}.inter.net.il'
p36
S'Dwight\\sSchultz'
p37
tp38
asS'Cort'
p39
(lp40
(S'~hheimbuer'
p41
S'c-\\d{1,3}-\\d{1,3}-\\d{1,3}\\.f\\.dsl\\.de\\.ignite\\.net'
p42
S'hheimbuerger@gmx\\.net'
p43
tp44
asS'Shadow_Ranger'
p45
(lp46
(S'~weirdnath'
p47
S'\\d{1,3}-\\d{1,3}-\\d{1,3}-\\d{1,3}\\.cable\\.ubr02\\.stav\\.blueyonder\\.co\\.uk'
p48
S'Nathan'
p49
tp50
asS'Serpardum'
p51
(lp52
(S'~tazmaster'
p53
S'66-214-229-112\\.dhcp\\.lnbh\\.ca\\.charter\\.com'
p54
S'Jim\\sLangston'
p55
tp56
asS'Hawkwood'
p57
(lp58
(S'Keltaras'
p59
S'p54A0754B\\.dip\\.t-dialin\\.net'
p60
S'Hawkwood'
p61
tp62
asS'WyldKarde'
p63
(lp64
(S'~wyld\\.kard'
p65
S'host\\d{1,3}-\\d{1,3}-\\d{1,3}-\\d{1,3}\\.range\\d{1,3}-\\d{1,3}\\.btcentralplus.com'
p66
S'Wyld\\sKarde'
p67
tp68
as.