(dp0
S'MoGas'
p1
(lp2
(S'~MoGas'
p3
S'p548E[0-9A-F]{4}\\.dip0\\.t-ipconnect\\.de'
p4
S'New\\sNow\\sKnow\\sHow'
p5
tp6
asS'Terralthra'
p7
(lp8
(S'temnotepho'
p9
S'c-69-181-163-81\\.hsd1\\.ca\\.comcast\\.net'
p10
S'Terralthra'
p11
tp12
a(S'~chatzilla'
p13
S'reserve-64-79-126-3\\.wiline\\.com'
p14
S'New\\sNow\\sKnow\\sHow'
p15
tp16
a(S'temnotepho'
p17
S'69\\.181\\.163\\.81'
p18
S'Terralthra'
p19
tp20
a(S'temnotepho'
p21
S'c-67-161-35-238\\.hsd1\\.ca\\.comcast.net'
p22
S'Terralthra'
p23
tp24
a(S'~Terralthr'
p25
S'209.59.205.70'
p26
S'Got\\sZNC?'
p27
tp28
a(S'~Terralthr'
p29
S'209.59.205.70'
p30
S'Got\\sZNC\\?'
p31
tp32
asS'Ksero'
p33
(lp34
(S'~Andreas'
p35
S'85\\.8\\.1\\.236\\.se\\.wasadata\\.net'
p36
S'stockholm\\.se\\.quakenet\\.org'
p37
tp38
a(S'~Andreas'
p39
S'85\\.8\\.1\\.236'
p40
S'stockholm\\.se\\.quakenet\\.org'
p41
tp42
asS'SirSmilez'
p43
(lp44
(S'~nacho'
p45
S'216-43-91-88\\.dsl\\.mcleodusa\\.net'
p46
S'Smilez'
p47
tp48
asS'Parcival'
p49
(lp50
(S'HydraIRC'
p51
S'dialup\\d{1,3}\\.ark\\.sch\\.gr'
p52
S'parcival'
p53
tp54
asS'Hawkwood'
p55
(lp56
(S'Keltaras'
p57
S'p54A0[0-9A-F]{4}\\.dip\\.t-dialin\\.net'
p58
S'Hawkwood'
p59
tp60
a(S'~beorfel'
p61
S'p54A0[0-9A-F]{4}\\.dip\\.t-dialin\\.net'
p62
S'Hawkwood'
p63
tp64
asS'Raveen'
p65
(lp66
(S'~Miranda'
p67
S'82-36-21-135\\.cable\\.ubr01\\.smal\\.blueyonder\\.co\\.uk'
p68
S'Ol\\sMonk'
p69
tp70
asS'Smilez'
p71
(lp72
sS'Cort'
p73
(lp74
(S'~hheimbuer'
p75
S'campus077043\\.htwg-konstanz\\.de'
p76
S'hheimbuerger@gmx.net'
p77
tp78
a(S'~hheimbuer'
p79
S'c-\\d{1,3}-\\d{1,3}-\\d{1,3}\\.[fd]\\.dsl\\.de\\.ignite\\.net'
p80
S'hheimbuerger@gmx.net'
p81
tp82
a(S'~hheimbuer'
p83
S'dialin\\d{6}\\.justdsl\\.de'
p84
S'hheimbuerger@gmx.net'
p85
tp86
a(S'~hheimbuer'
p87
S'85.25.105.46'
p88
S'hheimbuerger@gmx.net'
p89
tp90
asS'GreenHawk'
p91
(lp92
(S'(~GreenHawk)|(~jess_i_74)'
p93
S'c-68-34-241-144\\.hsd1\\.pa\\.comcast\\.net'
p94
S'(black)|(Green\\[alleg\\])'
p95
tp96
a(S'~Miranda'
p97
S'hrbg-\\d{1,3}-\\d{1,3}-\\d{1,3}-\\d{1,3}-pppoe\\.dsl\\.hrbg\\.epix\\.net'
p98
S'GreenHawk'
p99
tp100
asS'Gandalf'
p101
(lp102
(S'~haha'
p103
S'host86-\\d{1,3}-\\d{1,3}-\\d{1,3}\\.range86-13[27]\\.btcentralplus\\.com'
p104
S'haha'
p105
tp106
asS'Gr4vity'
p107
(lp108
(S'mh'
p109
S'p54B8[0-9A-F]{4}\\.dip\\.t-dialin\\.net'
p110
S'-'
p111
tp112
a(S'mh'
p113
S'84\\.184\\.208\\.54'
p114
S'-'
p115
tp116
asS'Clay_Pigeon'
p117
(lp118
(S'~Clay_Pige'
p119
S'cpe-65-25-75-222\\.neo\\.res\\.rr\\.com'
p120
S'troy'
p121
tp122
asS'TheRock'
p123
(lp124
(S'~pvandomme'
p125
S'ROCKHAATBOL\\.users\\.quakenet\\.org'
p126
S'P\\.'
p127
tp128
asS'Bunnywabbit'
p129
(lp130
(S'Bunnywabbi'
p131
S'3E3317A3\\.dslaccess\\.aol\\.com'
p132
S'Willem\\sde\\sVlam'
p133
tp134
a(S'Bunnywabbi'
p135
S'62\\.51\\.23\\.163'
p136
S'Willem\\sde\\sVlam'
p137
tp138
asS'Fellentos'
p139
(lp140
(S'~Khan_Prim'
p141
S'213-84-190-227\\.adsl\\.xs4all\\.nl'
p142
S'Maarten\\svan\\sDuijvenvoorde'
p143
tp144
asS'Sgt_Baker'
p145
(lp146
(S'~Miranda'
p147
S'cpc4-walt1-4-0-cust207\\.popl\\.cable\\.ntl\\.com'
p148
S'l@fe23\\.co\\.uk'
p149
tp150
a(S'~Miranda'
p151
S'cpc\\d-walt1-4-0-cust\\d{1,3}\\.popl\\.cable\\.ntl\\.com'
p152
S'l@fe23\\.co\\.uk'
p153
tp154
a(S'~Miranda'
p155
S'82\\.24\\.252\\.\\d{1,3}'
p156
S'l@fe23\\.co\\.uk'
p157
tp158
a(S'~l'
p159
S'host86-132-116-35\\.range86-132\\.btcentralplus\\.com'
p160
S'Sgt_Baker'
p161
tp162
asS'Dahwebmaster'
p163
(lp164
(S'~Owner'
p165
S'deserthtspgs-cuda1-68-70-39-33\\.losaca\\.adelphia\\.net'
p166
S'gaim'
p167
tp168
asS'Serpardum'
p169
(lp170
(S'~tazmaster'
p171
S'66-214-229-112\\.dhcp\\.lnbh\\.ca\\.charter\\.com'
p172
S'Jim\\sLangston'
p173
tp174
asS'Camebridge'
p175
(lp176
(S'Peacefull'
p177
S'81\\.247\\.96\\.166'
p178
S'Bart'
p179
tp180
asS'Dengaroth'
p181
(lp182
(S'~chatzilla'
p183
S'adsl-168-235-162\\.dsl\\.nextra\\.sk'
p184
S'New\\sNow\\sKnow\\sHow'
p185
tp186
a(S'~Miranda'
p187
S'adsl-flat-basic-\\d{1,3}\\.\\d{1,3}-\\d{1,3}-\\d{1,3}\\.telecom\\.sk'
p188
S'Peter\\sKopac'
p189
tp190
a(S'~Miranda'
p191
S'adsl-d\\d{1,3}\\.\\d{1,3}-\\d{1,3}-\\d{1,3}.telecom.sk'
p192
S'Peter\\sKopac'
p193
tp194
a(S'~Miranda'
p195
S'adsl-data-\\d{1,3}\\.\\d{1,3}-\\d{1,3}-\\d{1,3}.telecom.sk'
p196
S'Peter\\sKopac'
p197
tp198
asS'WyldKarde'
p199
(lp200
(S'~wyld\\.kard'
p201
S'host\\d{1,3}-\\d{1,3}-\\d{1,3}-\\d{1,3}\\.range\\d{1,3}-\\d{1,3}\\.btcentralplus.com'
p202
S'Wyld\\sKarde'
p203
tp204
asS'History'
p205
(lp206
(S'~History'
p207
S'cpe\\.atm2-0-72117\\.0x535984ae\\.virnxx16\\.customer\\.tele\\.dk'
p208
S'History'
p209
tp210
asS'Raziel'
p211
(lp212
(S'Aleph_Raz'
p213
S'adsl-\\d{1,3}-\\d{1,3}-\\d{1,3}-\\d{1,3}\\.dsl\\.sntc01\\.pacbell\\.net'
p214
S'Mars\\sMorales'
p215
tp216
a(S'Raziel'
p217
S'c-69-181-163-81\\.hsd1\\.ca\\.comcast\\.net'
p218
S'Mario\\sMorales'
p219
tp220
a(S'Raziel'
p221
S'c-67-161-35-238\\.hsd1\\.ca\\.comcast\\.net'
p222
S'Mario.Morales'
p223
tp224
asS'Shadow_RT'
p225
(lp226
sS'Kartoffel'
p227
(lp228
(S'~Miranda'
p229
S'66-188-40-113\\.dhcp\\.bycy\\.mi\\.charter\\.com'
p230
S'Miranda41'
p231
tp232
asS'Being'
p233
(lp234
(S'theinone'
p235
S'dyn-197-129-dsl\\.vsp\\.fi'
p236
S'\\.'
p237
tp238
a(S'~theinone'
p239
S'h\\d{1,3}-\\d{1,3}\\.tekniikka\\.turkuamk\\.fi'
p240
S'\\.'
p241
tp242
asS'Abomination'
p243
(lp244
(S'~wally5646'
p245
S'adsl-065-015-015-164\\.sip\\.mia\\.bellsouth\\.net'
p246
S'=P'
p247
tp248
asS'Idanmel'
p249
(lp250
(S'Idan'
p251
S'IGLD-\\d{1,3}-\\d{1,3}-\\d{1,3}-\\d{1,3}.inter.net.il'
p252
S'Dwight\\sSchultz'
p253
tp254
asS'Shadow_Ranger'
p255
(lp256
(S'~weirdnath'
p257
S'82-33-29-97\\.cable\\.ubr02\\.stav\\.blueyonder\\.co\\.uk'
p258
S'Nathan'
p259
tp260
asS'Factoid'
p261
(lp262
(S'~acheater'
p263
S'wnpgmb02dc1-59-187\\.dynamic\\.mts\\.net'
p264
S'Factoid'
p265
tp266
a(S'~acheater'
p267
S'ns1\\.tinfoilhat\\.ca'
p268
S'\\*Unknown\\*'
p269
tp270
as.