(dp0
S'MoGas'
p1
(lp2
(S'~MoGas'
p3
S'p548E[0-9A-F]{4}\\.dip0\\.t-ipconnect\\.de'
p4
S'New\\sNow\\sKnow\\sHow'
p5
tp6
asS'Terralthra'
p7
(lp8
(S'temnotepho'
p9
S'c-69-181-163-81\\.hsd1\\.ca\\.comcast\\.net'
p10
S'Terralthra'
p11
tp12
a(S'~chatzilla'
p13
S'reserve-64-79-126-3\\.wiline\\.com'
p14
S'New\\sNow\\sKnow\\sHow'
p15
tp16
a(S'temnotepho'
p17
S'69\\.181\\.163\\.81'
p18
S'Terralthra'
p19
tp20
a(S'temnotepho'
p21
S'c-67-161-35-238\\.hsd1\\.ca\\.comcast.net'
p22
S'Terralthra'
p23
tp24
asS'Ksero'
p25
(lp26
(S'~Andreas'
p27
S'85\\.8\\.1\\.236\\.se\\.wasadata\\.net'
p28
S'stockholm\\.se\\.quakenet\\.org'
p29
tp30
a(S'~Andreas'
p31
S'85\\.8\\.1\\.236'
p32
S'stockholm\\.se\\.quakenet\\.org'
p33
tp34
asS'SirSmilez'
p35
(lp36
(S'~nacho'
p37
S'216-43-91-88\\.dsl\\.mcleodusa\\.net'
p38
S'Smilez'
p39
tp40
asS'Parcival'
p41
(lp42
(S'HydraIRC'
p43
S'dialup\\d{1,3}\\.ark\\.sch\\.gr'
p44
S'parcival'
p45
tp46
asS'Hawkwood'
p47
(lp48
(S'Keltaras'
p49
S'p54A0[0-9A-F]{4}\\.dip\\.t-dialin\\.net'
p50
S'Hawkwood'
p51
tp52
a(S'~beorfel'
p53
S'p54A0[0-9A-F]{4}\\.dip\\.t-dialin\\.net'
p54
S'Hawkwood'
p55
tp56
asS'Raveen'
p57
(lp58
(S'~Miranda'
p59
S'82-36-21-135\\.cable\\.ubr01\\.smal\\.blueyonder\\.co\\.uk'
p60
S'Ol\\sMonk'
p61
tp62
asS'Smilez'
p63
(lp64
sS'Cort'
p65
(lp66
(S'~hheimbuer'
p67
S'campus077043\\.htwg-konstanz\\.de'
p68
S'hheimbuerger@gmx.net'
p69
tp70
a(S'~hheimbuer'
p71
S'c-\\d{1,3}-\\d{1,3}-\\d{1,3}\\.[fd]\\.dsl\\.de\\.ignite\\.net'
p72
S'hheimbuerger@gmx.net'
p73
tp74
a(S'~hheimbuer'
p75
S'dialin\\d{6}\\.justdsl\\.de'
p76
S'hheimbuerger@gmx.net'
p77
tp78
asS'GreenHawk'
p79
(lp80
(S'(~GreenHawk)|(~jess_i_74)'
p81
S'c-68-34-241-144\\.hsd1\\.pa\\.comcast\\.net'
p82
S'(black)|(Green\\[alleg\\])'
p83
tp84
a(S'~Miranda'
p85
S'hrbg-\\d{1,3}-\\d{1,3}-\\d{1,3}-\\d{1,3}-pppoe\\.dsl\\.hrbg\\.epix\\.net'
p86
S'GreenHawk'
p87
tp88
asS'Gandalf'
p89
(lp90
(S'~haha'
p91
S'host86-\\d{1,3}-\\d{1,3}-\\d{1,3}\\.range86-13[27]\\.btcentralplus\\.com'
p92
S'haha'
p93
tp94
asS'Gr4vity'
p95
(lp96
(S'mh'
p97
S'p54B8[0-9A-F]{4}\\.dip\\.t-dialin\\.net'
p98
S'-'
p99
tp100
a(S'mh'
p101
S'84\\.184\\.208\\.54'
p102
S'-'
p103
tp104
asS'Clay_Pigeon'
p105
(lp106
(S'~Clay_Pige'
p107
S'cpe-65-25-75-222\\.neo\\.res\\.rr\\.com'
p108
S'troy'
p109
tp110
asS'TheRock'
p111
(lp112
(S'~pvandomme'
p113
S'ROCKHAATBOL\\.users\\.quakenet\\.org'
p114
S'P\\.'
p115
tp116
asS'Bunnywabbit'
p117
(lp118
(S'Bunnywabbi'
p119
S'3E3317A3\\.dslaccess\\.aol\\.com'
p120
S'Willem\\sde\\sVlam'
p121
tp122
a(S'Bunnywabbi'
p123
S'62\\.51\\.23\\.163'
p124
S'Willem\\sde\\sVlam'
p125
tp126
asS'Fellentos'
p127
(lp128
(S'~Khan_Prim'
p129
S'213-84-190-227\\.adsl\\.xs4all\\.nl'
p130
S'Maarten\\svan\\sDuijvenvoorde'
p131
tp132
asS'Sgt_Baker'
p133
(lp134
(S'~Miranda'
p135
S'cpc4-walt1-4-0-cust207\\.popl\\.cable\\.ntl\\.com'
p136
S'l@fe23\\.co\\.uk'
p137
tp138
a(S'~Miranda'
p139
S'cpc\\d-walt1-4-0-cust\\d{1,3}\\.popl\\.cable\\.ntl\\.com'
p140
S'l@fe23\\.co\\.uk'
p141
tp142
a(S'~Miranda'
p143
S'82\\.24\\.252\\.\\d{1,3}'
p144
S'l@fe23\\.co\\.uk'
p145
tp146
a(S'~l'
p147
S'host86-132-116-35\\.range86-132\\.btcentralplus\\.com'
p148
S'Sgt_Baker'
p149
tp150
asS'Dahwebmaster'
p151
(lp152
(S'~Owner'
p153
S'deserthtspgs-cuda1-68-70-39-33\\.losaca\\.adelphia\\.net'
p154
S'gaim'
p155
tp156
asS'Serpardum'
p157
(lp158
(S'~tazmaster'
p159
S'66-214-229-112\\.dhcp\\.lnbh\\.ca\\.charter\\.com'
p160
S'Jim\\sLangston'
p161
tp162
asS'Camebridge'
p163
(lp164
(S'Peacefull'
p165
S'81\\.247\\.96\\.166'
p166
S'Bart'
p167
tp168
asS'Dengaroth'
p169
(lp170
(S'~chatzilla'
p171
S'adsl-168-235-162\\.dsl\\.nextra\\.sk'
p172
S'New\\sNow\\sKnow\\sHow'
p173
tp174
a(S'~Miranda'
p175
S'adsl-flat-basic-\\d{1,3}\\.\\d{1,3}-\\d{1,3}-\\d{1,3}\\.telecom\\.sk'
p176
S'Peter\\sKopac'
p177
tp178
a(S'~Miranda'
p179
S'adsl-d\\d{1,3}\\.\\d{1,3}-\\d{1,3}-\\d{1,3}.telecom.sk'
p180
S'Peter\\sKopac'
p181
tp182
a(S'~Miranda'
p183
S'adsl-data-\\d{1,3}\\.\\d{1,3}-\\d{1,3}-\\d{1,3}.telecom.sk'
p184
S'Peter\\sKopac'
p185
tp186
asS'WyldKarde'
p187
(lp188
(S'~wyld\\.kard'
p189
S'host\\d{1,3}-\\d{1,3}-\\d{1,3}-\\d{1,3}\\.range\\d{1,3}-\\d{1,3}\\.btcentralplus.com'
p190
S'Wyld\\sKarde'
p191
tp192
asS'History'
p193
(lp194
(S'~History'
p195
S'cpe\\.atm2-0-72117\\.0x535984ae\\.virnxx16\\.customer\\.tele\\.dk'
p196
S'History'
p197
tp198
asS'Raziel'
p199
(lp200
(S'Aleph_Raz'
p201
S'adsl-\\d{1,3}-\\d{1,3}-\\d{1,3}-\\d{1,3}\\.dsl\\.sntc01\\.pacbell\\.net'
p202
S'Mars\\sMorales'
p203
tp204
a(S'Raziel'
p205
S'c-69-181-163-81\\.hsd1\\.ca\\.comcast\\.net'
p206
S'Mario\\sMorales'
p207
tp208
a(S'Raziel'
p209
S'c-67-161-35-238\\.hsd1\\.ca\\.comcast\\.net'
p210
S'Mario.Morales'
p211
tp212
asS'Shadow_RT'
p213
(lp214
sS'Kartoffel'
p215
(lp216
(S'~Miranda'
p217
S'66-188-40-113\\.dhcp\\.bycy\\.mi\\.charter\\.com'
p218
S'Miranda41'
p219
tp220
asS'Being'
p221
(lp222
(S'theinone'
p223
S'dyn-197-129-dsl\\.vsp\\.fi'
p224
S'\\.'
p225
tp226
a(S'~theinone'
p227
S'h\\d{1,3}-\\d{1,3}\\.tekniikka\\.turkuamk\\.fi'
p228
S'\\.'
p229
tp230
asS'Abomination'
p231
(lp232
(S'~wally5646'
p233
S'adsl-065-015-015-164\\.sip\\.mia\\.bellsouth\\.net'
p234
S'=P'
p235
tp236
asS'Idanmel'
p237
(lp238
(S'Idan'
p239
S'IGLD-\\d{1,3}-\\d{1,3}-\\d{1,3}-\\d{1,3}.inter.net.il'
p240
S'Dwight\\sSchultz'
p241
tp242
asS'Shadow_Ranger'
p243
(lp244
(S'~weirdnath'
p245
S'82-33-29-97\\.cable\\.ubr02\\.stav\\.blueyonder\\.co\\.uk'
p246
S'Nathan'
p247
tp248
asS'Factoid'
p249
(lp250
(S'~acheater'
p251
S'wnpgmb02dc1-59-187\\.dynamic\\.mts\\.net'
p252
S'Factoid'
p253
tp254
a(S'~acheater'
p255
S'ns1\\.tinfoilhat\\.ca'
p256
S'\\*Unknown\\*'
p257
tp258
as.