(dp0
S'MoGas'
p1
(lp2
(S'MoGas'
p3
S'p548E[0-9A-F]{4}\\.dip0\\.t-ipconnect\\.de'
p4
S'MoGas'
p5
tp6
a(S'MoGas'
p7
S'p548E[0-9A-F]{4}\\.dip0\\.t-ipconnect\\.de'
p8
S'New\\sNow\\sKnow\\sHow'
p9
tp10
a(S'~chatzilla'
p11
S'p548E[0-9A-F]{4}\\.dip0\\.t-ipconnect\\.de'
p12
S'New\\sNow\\sKnow\\sHow'
p13
tp14
asS'Terralthra'
p15
(lp16
(S'temnotepho'
p17
S'c-67-161-35-238\\.hsd1\\.ca\\.comcast.net'
p18
S'Terralthra'
p19
tp20
a(S'~tablet'
p21
S'adsl-67-125-68-246\\.dsl\\.snfc21\\.pacbell\\.net'
p22
S'Terralthra'
p23
tp24
a(S'Terra_hehe'
p25
S'reserve-64-79-126-3\\.wiline\\.com'
p26
S'Terralthra'
p27
tp28
a(S'~tablet'
p29
S'c-\\d{1,3}-\\d{1,3}-\\d{1,3}-\\d{1,3}\\.hsd1\\.ca\\.comcast\\.net'
p30
S'Terralthra'
p31
tp32
a(S'~terralthr'
p33
S'c-\\d{1,3}-\\d{1,3}-\\d{1,3}-\\d{1,3}\\.hsd1\\.ca\\.comcast\\.net'
p34
S'terralthra'
p35
tp36
a(S'~tablet'
p37
S'\\d{1,3}-\\d{1,3}-\\d{1,3}-\\d{1,3}\\.isp\\.comcastbusiness\\.net'
p38
S'Terralthra'
p39
tp40
a(S'~tablet'
p41
S'67.161.35.238'
p42
S'Terralthra'
p43
tp44
a(S'Terra_hehe'
p45
S'64.79.126.3'
p46
S'Terralthra'
p47
tp48
a(S'~Terralthr'
p49
S'209\\.59\\.205\\.70'
p50
S'Got\\sZNC\\?'
p51
tp52
a(S'~Terralthra'
p53
S'207.58.186.16'
p54
S'Got\\sZNC\\?'
p55
tp56
a(S'~Terralthra'
p57
S'207.58.186.16'
p58
S'Got\\sZNC?'
p59
tp60
a(S'~Terralthr'
p61
S'207.58.186.16'
p62
S'Got.ZNC.'
p63
tp64
a(S'~Terra_heh'
p65
S'reserve-\\d{1,3}-\\d{1,3}-\\d{1,3}-\\d{1,3}\\.wiline\\.com'
p66
S'Terralthra'
p67
tp68
a(S'~Terra_heh'
p69
S'reserve-\\d{1,3}-\\d{1,3}-\\d{1,3}-\\d{1,3}\\.wiline\\.com'
p70
S'Terralthra'
p71
tp72
asS'Ksero'
p73
(lp74
(S'~Andreas'
p75
S'85\\.8\\.1\\.236'
p76
S'stockholm\\.se\\.quakenet\\.org'
p77
tp78
a(S'~Andreas'
p79
S'85\\.8\\.1\\.236\\.se\\.wasadata\\.net'
p80
S'Andreas'
p81
tp82
a(S'~Andreas'
p83
S'Ksero\\.users\\.quakenet\\.org'
p84
S'Andreas'
p85
tp86
a(S'~Ksero'
p87
S'c\\d{1,3}-\\d{1,3}-\\d{1,3}-\\d{1,3}\\.bredband\\.comhem\\.se'
p88
S'Ksero'
p89
tp90
a(S'~andreas'
p91
S'c\\d{1,3}-\\d{1,3}-\\d{1,3}-\\d{1,3}\\.bredband\\.comhem\\.se'
p92
S'gaim'
p93
tp94
a(S'~Andreas'
p95
S'\\d{1,3}\\.\\d{1,3}\\.\\d{1,3}\\.\\d{1,3}\\.se\\.wasadata\\.net'
p96
S'stockholm\\.se\\.quakenet\\.org'
p97
tp98
asS'SirSmilez'
p99
(lp100
(S'~nacho'
p101
S'216-43-91-88\\.dsl\\.mcleodusa\\.net'
p102
S'Smilez'
p103
tp104
a(S'~stillnach'
p105
S'ppp-70-226-162-72\\.dsl\\.mdsnwi\\.ameritech\\.net'
p106
S'Nacho\\sBizness'
p107
tp108
a(S'~stillnach'
p109
S'ppp-\\d{1,3}-\\d{1,3}-\\d{1,3}-\\d{1,3}\\.dsl\\.mdsnwi\\.ameritech\\.net'
p110
S'Nacho\\sBizness'
p111
tp112
a(S'~nacho'
p113
S'\\d{1,3}\\.\\d{1,3}\\.\\d{1,3}\\.\\d{1,3}'
p114
S'Smilez'
p115
tp116
a(S'~stillnach'
p117
S'CPE-\\d{1,3}-\\d{1,3}-\\d{1,3}-\\d{1,3}\\.wi\\.res\\.rr\\.com'
p118
S'Nacho\\sBizness'
p119
tp120
a(S'Smilez'
p121
S'CPE-\\d{1,3}-\\d{1,3}-\\d{1,3}-\\d{1,3}\\.wi\\.res\\.rr\\.com'
p122
S'Nacho\\sBizness'
p123
tp124
a(S'Smilez'
p125
S'70.92.245.130'
p126
S'Nacho\\sBizness'
p127
tp128
asS'Flower'
p129
(lp130
(S'~Miranda'
p131
S'IP-\\d{12}\\.dialin\\.heagmedianet\\.de'
p132
S'Flower\\sPower'
p133
tp134
asS'Parcival'
p135
(lp136
(S'HydraIRC'
p137
S'dialup\\d{1,3}\\.ark\\.sch\\.gr'
p138
S'parcival'
p139
tp140
asS'Hawkwood'
p141
(lp142
(S'Keltaras'
p143
S'p54A0[0-9A-F]{4}\\.dip\\.t-dialin\\.net'
p144
S'Hawkwood'
p145
tp146
a(S'~beorfel'
p147
S'p54A0[0-9A-F]{4}\\.dip\\.t-dialin\\.net'
p148
S'Hawkwood'
p149
tp150
a(S'hawks'
p151
S'gw\\d{1,3}\\.wh-stuttgart\\.de'
p152
S'Hawkwood'
p153
tp154
a(S'Keltaras'
p155
S'84.160.103.4'
p156
S'Hawkwood'
p157
tp158
a(S'Hawkwood'
p159
S'p54A0[0-9A-F]{4}\\.dip\\.t-dialin\\.net'
p160
S'Ulf.Fuchs'
p161
tp162
a(S'hawks'
p163
S'gw08\\.wh-stuttgart\\.de'
p164
S'Ulf\\sFuchs'
p165
tp166
asS'Raveen'
p167
(lp168
(S'~Miranda'
p169
S'82\\.36\\.21\\.135'
p170
S'Ol\\sMonk'
p171
tp172
a(S'~Miranda'
p173
S'\\d{1,3}-\\d{1,3}-\\d{1,3}-\\d{1,3}\\.cable\\.ubr01\\.smal\\.blueyonder\\.co\\.uk'
p174
S'Ol\\sMonk'
p175
tp176
a(S'~Miranda'
p177
S'82\\.35\\.229\\.118'
p178
S'Ol\\sMonk'
p179
tp180
asS'Red1'
p181
(lp182
(S'RTIRCusr'
p183
S'adsl-69-224-155-129\\.dsl\\.irvnca\\.pacbell\\.net'
p184
S'RTIRCusr'
p185
tp186
asS'Shadow_Ranger'
p187
(lp188
(S'~weirdnath'
p189
S'\\d{1,3}-\\d{1,3}-\\d{1,3}-\\d{1,3}\\.cable\\.ubr02\\.stav\\.blueyonder\\.co\\.uk'
p190
S'Nathan'
p191
tp192
asS'Cort'
p193
(lp194
(S'~hheimbuer'
p195
S'campus077043\\.htwg-konstanz\\.de'
p196
S'hheimbuerger@gmx.net'
p197
tp198
a(S'~hheimbuer'
p199
S'c-\\d{1,3}-\\d{1,3}-\\d{1,3}\\.[fd]\\.dsl\\.de\\.ignite\\.net'
p200
S'hheimbuerger@gmx.net'
p201
tp202
a(S'~hheimbuer'
p203
S'dialin\\d{6}\\.justdsl\\.de'
p204
S'hheimbuerger@gmx.net'
p205
tp206
a(S'~hheimbuer'
p207
S'dialin105129.justdsl.de'
p208
S'CortsPalm'
p209
tp210
a(S'~hheimbuer'
p211
S'campus\\d{1,6}\\.htwg-konstanz\\.de'
p212
S'hheimbuerger@gmx.net'
p213
tp214
a(S'~hheimbuer'
p215
S'cn\\d{6}\\.vpn\\.rz\\.htwg-konstanz\\.de'
p216
S'hheimbuerger@gmx\\.net'
p217
tp218
a(S'~hheimbuer'
p219
S'dialin\\d{1,6}\\.justdsl\\.de'
p220
S'hheimbuerger@gmx\\.net'
p221
tp222
asS'Fell'
p223
(lp224
(S'.'
p225
g225
g225
tp226
a(S'~Miranda'
p227
S'213-84-190-227\\.adsl\\.xs4all\\.nl'
p228
S'Maarten\\svan\\sDuijvenvoorde'
p229
tp230
asS'GreenHawk'
p231
(lp232
(S'(~GreenHawk)|(~jess_i_74)'
p233
S'c-68-34-241-144\\.hsd1\\.pa\\.comcast\\.net'
p234
S'(black)|(Green\\[alleg\\])'
p235
tp236
a(S'~Miranda'
p237
S'hrbg-\\d{1,3}-\\d{1,3}-\\d{1,3}-\\d{1,3}-pppoe\\.dsl\\.hrbg\\.epix\\.net'
p238
S'GreenHawk'
p239
tp240
a(S'~GreenHawk'
p241
S'68\\.34\\.241\\.144'
p242
S'black'
p243
tp244
a(S'~jess_i_74'
p245
S'c-68-34-241-144\\.hsd1\\.pa\\.comcast\\.net'
p246
S'Green\\['
p247
tp248
a(S'~GreenHawk'
p249
S'c-\\d{1,3}-\\d{1,3}-\\d{1,3}-\\d{1,3}\\.hsd1\\.pa\\.comcast\\.net'
p250
S'black'
p251
tp252
asS'Gandalf'
p253
(lp254
(S'~balexand'
p255
S'host\\d{1,3}-\\d{1,3}-\\d{1,3}-\\d{1,3}\\.range\\d{1,3}-\\d{1,3}\\.btcentralplus\\.com'
p256
S'gaim'
p257
tp258
a(S'~haha'
p259
S'host\\d{1,3}-\\d{1,3}-\\d{1,3}-\\d{1,3}\\.range\\d{1,2}-\\d{1,3}\\.btcentralplus\\.com'
p260
S'haha'
p261
tp262
asS'Gr4vity'
p263
(lp264
(S'mh'
p265
S'p54B8[0-9A-F]{4}\\.dip\\.t-dialin\\.net'
p266
S'-'
p267
tp268
a(S'mh'
p269
S'84\\.184\\.208\\.54'
p270
S'-'
p271
tp272
a(S'mh'
p273
S'dslb-088-073-239-180\\.pools\\.arcor-ip\\.net'
p274
S'-'
p275
tp276
a(S'mh'
p277
S'dslb-\\d{1,3}-\\d{1,3}-\\d{1,3}-\\d{1,3}\\.pools\\.arcor-ip\\.net'
p278
S'-'
p279
tp280
a(S'mh'
p281
S'88\\.73\\.214\\.151'
p282
S'-'
p283
tp284
asS'Hockey1015'
p285
(lp286
(S'hockey1015'
p287
S'cpe-\\d{1,3}-\\d{1,3}-\\d{1,3}-\\d{1,3}\\.twcny\\.res\\.rr\\.com'
p288
S'Brandon\\sWebber'
p289
tp290
a(S'~webhead10'
p291
S'cpe-\\d{1,3}-\\d{1,3}-\\d{1,3}-\\d{1,3}\\.twcny\\.res\\.rr\\.com'
p292
S'Brandon\\sWebber'
p293
tp294
a(S'hockey1015'
p295
S'24\\.59\\.\\d{1,3}\\.\\d{1,3}'
p296
S'Brandon\\sWebber'
p297
tp298
a(S'~webhead10'
p299
S'\\d{1,3}-\\d{1,3}-\\d{1,3}-\\d{1,3}\\.static\\.suscom-maine\\.net'
p300
S'Brandon\\sWebber'
p301
tp302
asS'Clay_Pigeon'
p303
(lp304
(S'~Clay_Pige'
p305
S'cpe-\\d{1,3}-\\d{1,3}-\\d{1,3}-\\d{1,3}\\.neo\\.res\\.rr\\.com'
p306
S'troy'
p307
tp308
asS'Sgt_Other'
p309
(lp310
(S'Sgt_Other'
p311
S'cpc1-walt1-4-0-cust79.popl.cable.ntl.com'
p312
S'ChrisNorman'
p313
tp314
asS'TheRock'
p315
(lp316
(S'~pvandomme'
p317
S'ROCKHAATBOL\\.users\\.quakenet\\.org'
p318
S'P\\.'
p319
tp320
a(S'~pvandomme'
p321
S'slip\\d{1,3}-\\d{1,3}-\\d{1,3}-\\d{1,3}\\.ams\\.nl\\.prserv\\.net'
p322
S'P\\.'
p323
tp324
asS'Bunnywabbit'
p325
(lp326
(S'Bunnywabbi'
p327
S'3E3317A3\\.dslaccess\\.aol\\.com'
p328
S'Willem\\sde\\sVlam'
p329
tp330
a(S'Bunnywabbi'
p331
S'62\\.51\\.23\\.163'
p332
S'Willem\\sde\\sVlam'
p333
tp334
a(S'Bunnywabbi'
p335
S'3E3317F7\\.dslaccess\\.aol\\.com'
p336
S'Willem\\sde\\sVlam'
p337
tp338
asS'Fellentos'
p339
(lp340
(S'~Khan_Prim'
p341
S'213-84-190-227\\.adsl\\.xs4all\\.nl'
p342
S'Maarten\\svan\\sDuijvenvoorde'
p343
tp344
a(S'~Miranda'
p345
S'213\\.84\\.192\\.227'
p346
S'Maarten\\svan\\sDuijvenvoorde'
p347
tp348
a(S'~Miranda'
p349
S'213\\.84\\.190\\.227'
p350
S'Maarten\\svan\\sDuijvenvoorde'
p351
tp352
a(S'~Miranda'
p353
S'\\d{1,3}-\\d{1,3}-\\d{1,3}-\\d{1,3}\\.adsl\\.xs4all\\.nl'
p354
S'Maarten\\svan\\sDuijvenvoord'
p355
tp356
asS'Sgt_Baker'
p357
(lp358
(S'~Miranda'
p359
S'cpc\\d-walt1-4-0-cust\\d{1,3}\\.popl\\.cable\\.ntl\\.com'
p360
S'l@fe23\\.co\\.uk'
p361
tp362
a(S'~l'
p363
S'host86-132-116-35\\.range86-132\\.btcentralplus\\.com'
p364
S'Sgt_Baker'
p365
tp366
a(S'~Miranda'
p367
S'cpc\\d-walt1-\\d-0-cust\\d{1,3}\\.popl\\.cable\\.ntl\\.com'
p368
S'l@fe23\\.co\\.uk'
p369
tp370
a(S'~l'
p371
S'host\\d{1,3}-\\d{1,3}-\\d{1,3}-\\d{1,3}\\.range\\d{1,3}-\\d{1,3}\\.btcentralplus\\.com'
p372
S'Sgt_Baker'
p373
tp374
a(S'~Miranda'
p375
S'82\\.10\\.156\\.25'
p376
S'l@fe23\\.co\\.uk'
p377
tp378
asS'Dahwebmaster'
p379
(lp380
(S'~Owner'
p381
S'deserthtspgs-cuda1-68-70-39-33\\.losaca\\.adelphia\\.net'
p382
S'gaim'
p383
tp384
a(S'~Miranda'
p385
S'deserthtspgs-cuda1-68-70-39-33\\.losaca\\.adelphia\\.net'
p386
S'Dahwebmaster'
p387
tp388
a(S'~Miranda'
p389
S'deserthtspgs-cuda\\d{1}-\\d{1,3}-\\d{1,3}-\\d{1,3}-\\d{1,3}\\.losaca\\.adelphia\\.net'
p390
S'Dahwebmaster'
p391
tp392
a(S'~Owner'
p393
S'68\\.169\\.183\\.25'
p394
S'gaim'
p395
tp396
asS'Da_Muck'
p397
(lp398
(S'TFA_DaMuck'
p399
S'12-226-113-42\\.client\\.mchsi\\.com'
p400
S'Micheal\\sFeeney'
p401
tp402
asS'Schnobs'
p403
(lp404
(S'~schnobs'
p405
S'dslb-\\d{1,3}-\\d{1,3}-\\d{1,3}-\\d{1,3}\\.pools\\.arcor-ip\\.net'
p406
S'Christian\\sSchnobrich'
p407
tp408
a(S'~schnobs'
p409
S'dslb-\\d{1,3}-\\d{1,3}-\\d{1,3}-\\d{1,3}\\.pools\\.arcor-ip\\.net'
p410
S'schnobs'
p411
tp412
asS'Serpardum'
p413
(lp414
(S'~tazmaster'
p415
S'\\d{1,3}-\\d{1,3}-\\d{1,3}-\\d{1,3}\\.dhcp\\.lnbh\\.ca\\.charter\\.com'
p416
S'Jim\\sLangston'
p417
tp418
asS'Camebridge'
p419
(lp420
(S'Peacefull'
p421
S'81\\.247\\.96\\.166'
p422
S'Bart'
p423
tp424
a(S'Peacefull'
p425
S'\\d{1,3}-\\d{1,3}\\.\\d{1,3}\\.\\d{1,3}\\.adsl\\.skynet\\.be'
p426
S'Bart'
p427
tp428
asS'Dengaroth'
p429
(lp430
(S'~chatzilla'
p431
S'adsl-168-235-162\\.dsl\\.nextra\\.sk'
p432
S'New\\sNow\\sKnow\\sHow'
p433
tp434
a(S'~Miranda'
p435
S'adsl-flat-basic-\\d{1,3}\\.\\d{1,3}-\\d{1,3}-\\d{1,3}\\.telecom\\.sk'
p436
S'Peter\\sKopac'
p437
tp438
a(S'~Miranda'
p439
S'adsl-d\\d{1,3}\\.\\d{1,3}-\\d{1,3}-\\d{1,3}.telecom.sk'
p440
S'Peter\\sKopac'
p441
tp442
a(S'~Miranda'
p443
S'adsl-data-\\d{1,3}\\.\\d{1,3}-\\d{1,3}-\\d{1,3}.telecom.sk'
p444
S'Peter\\sKopac'
p445
tp446
a(S'~Miranda'
p447
S'adsl-flat-stand-\\d{1,3}\\.\\d{1,3}-\\d{1,3}-\\d{1,3}\\.telecom\\.sk'
p448
S'Peter\\sKopac'
p449
tp450
a(S'~Miranda'
p451
S'\\d{1,3}\\.\\d{1,3}\\.\\d{1,3}\\.\\d{1,3}'
p452
S'Peter\\sKopac'
p453
tp454
a(S'Deng'
p455
S'adsl-flat-stand-\\d{1,3}\\.\\d{1,3}-\\d{1,3}-\\d{1,3}\\.telecom\\.sk'
p456
S'Dengaroth'
p457
tp458
a(S'~Miranda'
p459
S'adsl-d\\d{1,3}\\.\\d{1,3}-\\d{1,3}-\\d{1,3}\\.t-com\\.sk'
p460
S'Peter\\sKopac'
p461
tp462
asS'WyldKarde'
p463
(lp464
(S'~wyld\\.kard'
p465
S'host\\d{1,3}-\\d{1,3}-\\d{1,3}-\\d{1,3}\\.range\\d{1,3}-\\d{1,3}\\.btcentralplus.com'
p466
S'Wyld\\sKarde'
p467
tp468
a(S'~wyld.kard'
p469
S'\\d{1,3}\\.\\d{1,3}\\.\\d{1,3}\\.\\d{1,3}'
p470
S'Wyld\\sKarde'
p471
tp472
asS'History'
p473
(lp474
(S'~History'
p475
S'cpe\\.atm2-0-72117\\.0x535984ae\\.virnxx16\\.customer\\.tele\\.dk'
p476
S'History'
p477
tp478
asS'Raziel'
p479
(lp480
(S'Aleph_Raz'
p481
S'adsl-\\d{1,3}-\\d{1,3}-\\d{1,3}-\\d{1,3}\\.dsl\\.sntc01\\.pacbell\\.net'
p482
S'Mars\\sMorales'
p483
tp484
a(S'Raziel'
p485
S'c-69-181-163-81\\.hsd1\\.ca\\.comcast\\.net'
p486
S'Mario\\sMorales'
p487
tp488
a(S'Raziel'
p489
S'c-67-161-35-238\\.hsd1\\.ca\\.comcast\\.net'
p490
S'Mario.Morales'
p491
tp492
a(S'~ocelotmar'
p493
S'c-\\d{1,3}-\\d{1,3}-\\d{1,3}-\\d{1,3}\\.hsd\\d{1}\\.ca\\.comcast\\.net'
p494
S'Mario\\sMorales'
p495
tp496
a(S'~Mars'
p497
S'c-\\d{1,3}-\\d{1,3}-\\d{1,3}-\\d{1,3}\\.hsd1\\.ca\\.comcast\\.net'
p498
S'Mars.Illuminatus'
p499
tp500
a(S'~Mars'
p501
S'c-\\d{1,3}-\\d{1,3}-\\d{1,3}-\\d{1,3}\\.hsd1\\.il\\.comcast\\.net'
p502
S'Mario'
p503
tp504
a(S'~Mars'
p505
S'71.194.212.190'
p506
S'Mario'
p507
tp508
a(S'~ocelotmar'
p509
S'71\\.194\\.212\\.190'
p510
S'Mars\\sMorales'
p511
tp512
a(S'~ocelotmar'
p513
S'c-\\d{1,3}-\\d{1,3}-\\d{1,3}-\\d{1,3}\\.hsd1\\.il\\.comcast\\.net'
p514
S'Mars\\sMorales'
p515
tp516
asS'MrChaos'
p517
(lp518
(S'~MrChaos'
p519
S'dialup-\\d{1,3}\\.\\d{1,3}\\.\\d{1,3}\\.\\d{1,3}\\.Dial1\\.Detroit1\\.Level3\\.net'
p520
S'noway\\sjose'
p521
tp522
a(S'MrChaos'
p523
S'dialup-\\d{1,3}\\.\\d{1,3}\\.\\d{1,3}\\.\\d{1,3}\\.Dial1\\.Detroit1\\.Level3\\.net'
p524
S'noway\\sjose'
p525
tp526
a(S'~iammrchao'
p527
S'dialup-\\d{1,3}\\.\\d{1,3}\\.\\d{1,3}\\.\\d{1,3}\\.Dial1\\.Detroit1\\.Level3\\.net'
p528
S'poopoohead'
p529
tp530
a(S'MrChaos'
p531
S'dialup-\\d{1,3}\\.\\d{1,3}\\.\\d{1,3}\\.\\d{1,3}\\.Dial1\\.Detroit1\\.Level3\\.net'
p532
S'poopoohead'
p533
tp534
asS'Stojilcoviz'
p535
(lp536
(S'~Stojilcov'
p537
S'host\\d{1,3}-\\d{1,3}\\.pool80104\\.interbusiness\\.it'
p538
S'Stojilcoviz'
p539
tp540
a(S'user'
p541
S'host\\d{1,3}-\\d{1,3}\\.pool80104\\.interbusiness\\.it'
p542
S'Stojilcoviz'
p543
tp544
asS'Kartoffel'
p545
(lp546
(S'~Miranda'
p547
S'66-188-40-113\\.dhcp\\.bycy\\.mi\\.charter\\.com'
p548
S'Miranda41'
p549
tp550
asS'Being'
p551
(lp552
(S'~theinone'
p553
S'h\\d{1,3}-\\d{1,3}\\.tekniikka\\.turkuamk\\.fi'
p554
S'\\.'
p555
tp556
a(S'theinone'
p557
S'dyn-\\d{1,3}-\\d{1,3}-dsl.vsp.fi'
p558
S'\\.'
p559
tp560
asS'Abomination'
p561
(lp562
(S'~wally5646'
p563
S'adsl-065-015-015-164\\.sip\\.mia\\.bellsouth\\.net'
p564
S'=P'
p565
tp566
asS'Idanmel'
p567
(lp568
(S'Idan'
p569
S'IGLD-\\d{1,3}-\\d{1,3}-\\d{1,3}-\\d{1,3}.inter.net.il'
p570
S'Dwight\\sSchultz'
p571
tp572
a(S'Idan'
p573
S'80\\.230\\.\\d{1,3}\\.\\d{1,3}'
p574
S'Dwight\\sSchultz'
p575
tp576
a(S'Idan'
p577
S'84\\.228\\.\\d{1,3}\\.\\d{1,3}'
p578
S'Dwight\\sSchultz'
p579
tp580
a(S'~chatzilla'
p581
S'IGLD-\\d{1,3}-\\d{1,3}-\\d{1,3}-\\d{1,3}\\.inter\\.net\\.il'
p582
S'ah\\?'
p583
tp584
asS'Radar'
p585
(lp586
(S'~Gemuine_L'
p587
S'63.163.14.138'
p588
S'Lee\\sPhillips'
p589
tp590
asS'Bard'
p591
(lp592
(S'~Bard'
p593
S'c-\\d{1,3}-\\d{1,3}-\\d{1,3}-\\d{1,3}\\.hsd1\\.mn\\.comcast\\.net'
p594
S'Merrick'
p595
tp596
a(S'Bard'
p597
S'c-\\d{1,3}-\\d{1,3}-\\d{1,3}-\\d{1,3}\\.hsd1\\.mn\\.comcast\\.net'
p598
S'Merrick'
p599
tp600
a(S'~merrick'
p601
S'c-\\d{1,3}-\\d{1,3}-\\d{1,3}-\\d{1,3}\\.hsd1\\.mn\\.comcast\\.net'
p602
S'Bard_RT'
p603
tp604
a(S'~merrick'
p605
S"'c-\\d{1,3}-\\d{1,3}-\\d{1,3}-\\d{1,3}\\.hsd1\\.mn\\.comcast\\.net"
p606
S'Bard_RT'
p607
tp608
a(S'~Bard'
p609
S'BardRT\\.users\\.quakenet\\.org'
p610
S'Merrick'
p611
tp612
asS'Entrist'
p613
(lp614
(S'Entrist'
p615
S'cpc3-hem14-0-0-cust292\\.lutn\\.cable\\.ntl\\.com'
p616
S'Steven\\sHenson'
p617
tp618
asS'Factoid'
p619
(lp620
(S'~acheater'
p621
S'wnpgmb02dc1-59-187\\.dynamic\\.mts\\.net'
p622
S'Factoid'
p623
tp624
a(S'~acheater'
p625
S'ns1\\.tinfoilhat\\.ca'
p626
S'\\*Unknown\\*'
p627
tp628
a(S'~acheater'
p629
S'\\d{1,3}\\.\\d{1,3}\\.\\d{1,3}\\.\\d{1,3}'
p630
S'Factoid'
p631
tp632
a(S'~acheater'
p633
S'wnpgmb02dc1-\\d{1,3}-\\d{1,3}\\.dynamic\\.mts\\.net'
p634
S'Factoid'
p635
tp636
a(S'~Miranda'
p637
S'wnpgmb02dc1-63-136.dynamic.mts.net'
p638
S'Adrian\\sCheater'
p639
tp640
a(S'~Miranda'
p641
S'wnpgmb\\d{1,2}dc\\d-\\d{1,3}-\\d{1,3}\\.dynamic\\.mts\\.net'
p642
S'Adrian\\sCheater'
p643
tp644
as.