(dp0
S'SamplePlugin'
p1
(imodules.PluginInterface
PluginWrapper
p2
(dp4
S'pluginInterface'
p5
PMyPersistentID
sS'enabled'
p6
I01
sS'filepath'
p7
ccopy_reg
_reconstructor
p8
(clib.path
path
p9
c__builtin__
str
p10
S'plugins/SamplePlugin.py'
p11
tp12
Rp13
sbsS'BugReplyPlugin'
p14
(imodules.PluginInterface
PluginWrapper
p15
(dp16
g5
PMyPersistentID
sg6
I01
sg7
g8
(g9
g10
S'plugins/BugReplyPlugin.py'
p17
tp18
Rp19
sbsS'UnitConversionPlugin'
p20
(imodules.PluginInterface
PluginWrapper
p21
(dp22
g5
PMyPersistentID
sg6
I01
sg7
g8
(g9
g10
S'plugins/UnitConversionPlugin.py'
p23
tp24
Rp25
sbsS'MathEvalPlugin'
p26
(imodules.PluginInterface
PluginWrapper
p27
(dp28
g5
PMyPersistentID
sg6
I01
sg7
g8
(g9
g10
S'plugins/MathEvalPlugin.py'
p29
tp30
Rp31
sbsS'WatchListPlugin'
p32
(imodules.PluginInterface
PluginWrapper
p33
(dp34
g5
PMyPersistentID
sg6
I01
sg7
g8
(g9
g10
S'plugins/WatchListPlugin.py'
p35
tp36
Rp37
sbsS'VersionPlugin'
p38
(imodules.PluginInterface
PluginWrapper
p39
(dp40
g5
PMyPersistentID
sg6
I01
sg7
g8
(g9
g10
S'plugins/VersionPlugin.py'
p41
tp42
Rp43
sbsS'AuthenticationPlugin'
p44
(imodules.PluginInterface
PluginWrapper
p45
(dp46
g5
PMyPersistentID
sg6
I01
sg7
g8
(g9
g10
S'plugins/AuthenticationPlugin.py'
p47
tp48
Rp49
sbsS'MutingPlugin'
p50
(imodules.PluginInterface
PluginWrapper
p51
(dp52
g5
PMyPersistentID
sg6
I00
sg7
g8
(g9
g10
S'plugins/MutingPlugin.py'
p53
tp54
Rp55
sbsS'WarWisdomPlugin'
p56
(imodules.PluginInterface
PluginWrapper
p57
(dp58
g5
PMyPersistentID
sg6
I01
sg7
g8
(g9
g10
S'plugins/WarWisdomPlugin.py'
p59
tp60
Rp61
sbsS'SeenPlugin'
p62
(imodules.PluginInterface
PluginWrapper
p63
(dp64
g5
PMyPersistentID
sg6
I01
sg7
g8
(g9
g10
S'plugins/SeenPlugin.py'
p65
tp66
Rp67
sbsS'RespectahPlugin'
p68
(imodules.PluginInterface
PluginWrapper
p69
(dp70
g5
PMyPersistentID
sg6
I01
sg7
g8
(g9
g10
S'plugins/RespectahPlugin.py'
p71
tp72
Rp73
sbsS'RandomGamePlugin'
p74
(imodules.PluginInterface
PluginWrapper
p75
(dp76
g5
PMyPersistentID
sg6
I01
sg7
g8
(g9
g10
S'plugins/RandomGamePlugin.py'
p77
tp78
Rp79
sbsS'SpellCheckPlugin'
p80
(imodules.PluginInterface
PluginWrapper
p81
(dp82
g5
PMyPersistentID
sg6
I01
sg7
g8
(g9
g10
S'plugins/SpellCheckPlugin.py'
p83
tp84
Rp85
sbsS'HighLowSolverPlugin'
p86
(imodules.PluginInterface
PluginWrapper
p87
(dp88
g5
PMyPersistentID
sg6
I01
sg7
g8
(g9
g10
S'plugins/HighLowSolverPlugin.py'
p89
tp90
Rp91
sbsS'PollPlugin'
p92
(imodules.PluginInterface
PluginWrapper
p93
(dp94
g5
PMyPersistentID
sg6
I01
sg7
g8
(g9
g10
S'plugins/PollPlugin.py'
p95
tp96
Rp97
sbsS'EmotePlugin'
p98
(imodules.PluginInterface
PluginWrapper
p99
(dp100
g5
PMyPersistentID
sg6
I01
sg7
g8
(g9
g10
S'plugins/EmotePlugin.py'
p101
tp102
Rp103
sbsS'WerewolfModeratorPlugin'
p104
(imodules.PluginInterface
PluginWrapper
p105
(dp106
g5
PMyPersistentID
sg6
I01
sg7
g8
(g9
g10
S'plugins/WerewolfModeratorPlugin.py'
p107
tp108
Rp109
sbsS'StatusPlugin'
p110
(imodules.PluginInterface
PluginWrapper
p111
(dp112
g5
PMyPersistentID
sg6
I01
sg7
g8
(g9
g10
S'plugins/StatusPlugin.py'
p113
tp114
Rp115
sbsS'EventNotificationPlugin'
p116
(imodules.PluginInterface
PluginWrapper
p117
(dp118
g5
PMyPersistentID
sg6
I00
sg7
g8
(g9
g10
S'plugins/EventNotificationPlugin.py'
p119
tp120
Rp121
sbsS'MinerLoadCalculationPlugin'
p122
(imodules.PluginInterface
PluginWrapper
p123
(dp124
g5
PMyPersistentID
sg6
I01
sg7
g8
(g9
g10
S'plugins/MinerLoadCalculationPlugin.py'
p125
tp126
Rp127
sbsS'DieRollingPlugin'
p128
(imodules.PluginInterface
PluginWrapper
p129
(dp130
g5
PMyPersistentID
sg6
I01
sg7
g8
(g9
g10
S'plugins/DieRollingPlugin.py'
p131
tp132
Rp133
sbsS'ImdbNickLookupPlugin'
p134
(imodules.PluginInterface
PluginWrapper
p135
(dp136
g5
PMyPersistentID
sg6
I01
sg7
g8
(g9
g10
S'plugins/ImdbNickLookupPlugin.py'
p137
tp138
Rp139
sbsS'ActivityTestPlugin'
p140
(imodules.PluginInterface
PluginWrapper
p141
(dp142
g5
PMyPersistentID
sg6
I01
sg7
g8
(g9
g10
S'plugins/ActivityTestPlugin.py'
p143
tp144
Rp145
sbsS'ClockPlugin'
p146
(imodules.PluginInterface
PluginWrapper
p147
(dp148
g5
PMyPersistentID
sg6
I01
sg7
g8
(g9
g10
S'plugins/ClockPlugin.py'
p149
tp150
Rp151
sbsS'VoiceChatPlugin'
p152
(imodules.PluginInterface
PluginWrapper
p153
(dp154
g5
PMyPersistentID
sg6
I01
sg7
g8
(g9
g10
S'plugins/VoiceChatPlugin.py'
p155
tp156
Rp157
sbsS'AllegTacToePlugin'
p158
(imodules.PluginInterface
PluginWrapper
p159
(dp160
g5
PMyPersistentID
sg6
I01
sg7
g8
(g9
g10
S'plugins/AllegTacToePlugin.py'
p161
tp162
Rp163
sbsS'TopicQueuePlugin'
p164
(imodules.PluginInterface
PluginWrapper
p165
(dp166
g5
PMyPersistentID
sg6
I01
sg7
g8
(g9
g10
S'plugins/TopicQueuePlugin.py'
p167
tp168
Rp169
sbsS'InsultPlugin'
p170
(imodules.PluginInterface
PluginWrapper
p171
(dp172
g5
PMyPersistentID
sg6
I01
sg7
g8
(g9
g10
S'plugins/InsultPlugin.py'
p173
tp174
Rp175
sbsS'CoreReaderPlugin'
p176
(imodules.PluginInterface
PluginWrapper
p177
(dp178
g5
PMyPersistentID
sg6
I01
sg7
g8
(g9
g10
S'plugins/CoreReaderPlugin.py'
p179
tp180
Rp181
sbsS'IMDBTriviaPlugin'
p182
(imodules.PluginInterface
PluginWrapper
p183
(dp184
g5
PMyPersistentID
sg6
I01
sg7
g8
(g9
g10
S'plugins/IMDBTriviaPlugin.py'
p185
tp186
Rp187
sbsS'HumanBehaviourPlugin'
p188
(imodules.PluginInterface
PluginWrapper
p189
(dp190
g5
PMyPersistentID
sg6
I01
sg7
g8
(g9
g10
S'plugins/HumanBehaviourPlugin.py'
p191
tp192
Rp193
sbsS'SummoningPlugin'
p194
(imodules.PluginInterface
PluginWrapper
p195
(dp196
g5
PMyPersistentID
sg6
I01
sg7
g8
(g9
g10
S'plugins/SummoningPlugin.py'
p197
tp198
Rp199
sbs.