(dp0
S'Adam4'
p1
S'TigereyeDialect'
p2
sS'Terralthra'
p3
S'TigereyeDialect'
p4
sS'Ksero'
p5
S'TigereyeDialect'
p6
sS'PsycH'
p7
S'TigereyeDialect'
p8
sS'neek'
p9
S'TigereyeDialect'
p10
sS'Gappy'
p11
S'TigereyeDialect'
p12
sS'Ozzy_XT'
p13
S'TigereyeDialect'
p14
sS'White_Rabbit'
p15
S'TigereyeDialect'
p16
sS'Raven42'
p17
S'TigereyeDialect'
p18
sS'meh-zz'
p19
S'TigereyeDialect'
p20
sS'hockster'
p21
S'TigereyeDialect'
p22
sS'AngryFuzzyAngel'
p23
S'TigereyeDialect'
p24
sS'Terra'
p25
S'TigereyeDialect'
p26
sS'Cort'
p27
S'CortDialect'
p28
sS'Adept'
p29
S'TigereyeDialect'
p30
sS'Adam4{about}'
p31
S'TigereyeDialect'
p32
sS'TheBored_PK'
p33
S'default'
p34
sS'GreenHawk'
p35
S'TigereyeDialect'
p36
sS'test'
p37
S'default'
p38
sS'^Bard'
p39
S'TigereyeDialect'
p40
sS'adam{about}'
p41
S'TigereyeDialect'
p42
sS'bpissed'
p43
S'TigereyeDialect'
p44
sS'adam'
p45
S'TigereyeDialect'
p46
sS'Squire'
p47
S'TigereyeDialect'
p48
sS'Wizard58'
p49
S'TigereyeDialect'
p50
sS'Terranap'
p51
S'TigereyeDialect'
p52
sS'adam4'
p53
S'TigereyeDialect'
p54
sS'TheBardIsRound'
p55
S'TigereyeDialect'
p56
sS'BardBouncingIn'
p57
S'TigereyeDialect'
p58
sS'FlingPu'
p59
S'default'
p60
sS'BardRT'
p61
S'TigereyeDialect'
p62
sS'bp'
p63
S'TigereyeDialect'
p64
sS'Bac'
p65
S'TigereyeDialect'
p66
sS'Fuzzle'
p67
S'TigereyeDialect'
p68
sS'Cort[VS]'
p69
S'CortDialect'
p70
sS'Deng'
p71
S'TigereyeDialect'
p72
sS'Terr'
p73
S'TigereyeDialect'
p74
sS'MrKekekeke'
p75
S'TigereyeDialect'
p76
sS'fuh-zz'
p77
S'TigereyeDialect'
p78
sS'Sgt_Baker'
p79
S'TigereyeDialect'
p80
sS'Hockey1015'
p81
S'TigereyeDialect'
p82
sS'Bard_RT'
p83
S'TigereyeDialect'
p84
sS'adam{alleg}'
p85
S'TigereyeDialect'
p86
sS'SRM_Jaybird'
p87
S'TigereyeDialect'
p88
sS'Bard'
p89
S'TigereyeDialect'
p90
sS'TheBardIsAround'
p91
S'TigereyeDialect'
p92
sS'Green'
p93
S'TigereyeDialect'
p94
sS'Wurf{Work}'
p95
S'default'
p96
sS'rodders-PK'
p97
S'CortDialect'
p98
sS'Adam'
p99
S'TigereyeDialect'
p100
s.