(dp0
S'Terralthra'
p1
S'TigereyeDialect'
p2
sS'Ksero'
p3
S'TigereyeDialect'
p4
sS'Terra'
p5
S'TigereyeDialect'
p6
sS'Cort'
p7
S'CortDialect'
p8
sS'Bac'
p9
S'TigereyeDialect'
p10
sS'test'
p11
S'default'
p12
sS'Cort[VS]'
p13
S'CortDialect'
p14
sS'Deng'
p15
S'TigereyeDialect'
p16
sS'rodders-PK'
p17
S'CortDialect'
p18
s.